target datalayout = "e-m:e-p270:32:32-p271:32:32-p272:64:64-i64:64-i128:128-f80:128-n8:16:32:64-S128"
target triple = "x86_64-pc-linux-gnu"

@H5PL_num_paths_g = internal global i32 0, align 4
@.str = private unnamed_addr constant [102 x i8] c"generated/home/dtcxzyw/WorkSpace/Projects/compilers/llvm-opt-benchmark/bench/hdf5/hdf5/src/H5PLpath.c\00", align 1
@H5E_PLUGIN_g = external global i64, align 8
@__func__.H5PL__append_path = private unnamed_addr constant [18 x i8] c"H5PL__append_path\00", align 1
@H5E_CANTINSERT_g = external global i64, align 8
@.str.7 = private unnamed_addr constant [29 x i8] c"unable to append search path\00", align 1

; Function Attrs: nounwind uwtable
define i32 @H5PL__append_path(ptr noundef %0) #0 {
  %2 = alloca ptr, align 8
  %3 = alloca i32, align 4
  %4 = alloca i8, align 1
  store ptr %0, ptr %2, align 8
  store i32 0, ptr %3, align 4
  store i8 0, ptr %4, align 1
  %5 = load ptr, ptr %2, align 8
  %6 = load i32, ptr @H5PL_num_paths_g, align 4
  %7 = call i32 @H5PL__insert_at(ptr noundef %5, i32 noundef %6)
  %8 = icmp slt i32 %7, 0
  br i1 %8, label %9, label %24

9:                                                ; preds = %1
  br label %10

10:                                               ; preds = %9
  br label %11

11:                                               ; preds = %10
  br label %12

12:                                               ; preds = %11
  %13 = load i64, ptr @H5E_PLUGIN_g, align 8
  %14 = load i64, ptr @H5E_CANTINSERT_g, align 8
  %15 = call i32 (ptr, ptr, i32, i64, i64, ptr, ...) @H5E_printf_stack(ptr noundef @.str, ptr noundef @__func__.H5PL__append_path, i32 noundef 394, i64 noundef %13, i64 noundef %14, ptr noundef @.str.7)
  br label %16

16:                                               ; preds = %12
  store i8 1, ptr %4, align 1
  %17 = load i8, ptr %4, align 1
  %18 = trunc i8 %17 to i1
  %19 = zext i1 %18 to i8
  store i8 %19, ptr %4, align 1
  br label %20

20:                                               ; preds = %16
  br label %21

21:                                               ; preds = %20
  store i32 -1, ptr %3, align 4
  br label %25

22:                                               ; No predecessors!
  br label %23

23:                                               ; preds = %22
  br label %24

24:                                               ; preds = %23, %1
  br label %25

25:                                               ; preds = %24, %21
  %26 = load i32, ptr %3, align 4
  ret i32 %26
}